; Function Attrs: mustprogress nofree norecurse nosync nounwind willreturn memory(argmem: read) uwtable
define dso_local noundef zeroext i1 @_ZNK4llvm11RegSizeInfoltERKS0_(ptr nocapture noundef nonnull readonly align 4 dereferenceable(12) %0, ptr nocapture noundef nonnull readonly align 4 dereferenceable(12) %1) local_unnamed_addr #5 align 2 {
  %3 = getelementptr inbounds nuw i8, ptr %0, i64 4
  %4 = getelementptr inbounds nuw i8, ptr %0, i64 8
  %5 = getelementptr inbounds nuw i8, ptr %1, i64 4
  %6 = getelementptr inbounds nuw i8, ptr %1, i64 8
  %7 = load i32, ptr %0, align 4
  %8 = load i32, ptr %1, align 4
  %9 = icmp ult i32 %7, %8
  br i1 %9, label %_ZStltIJRKjS1_S1_EJS1_S1_S1_EEbRKSt5tupleIJDpT_EERKS2_IJDpT0_EE.exit, label %10

10:                                               ; preds = %2
  %11 = icmp ult i32 %8, %7
  br i1 %11, label %_ZStltIJRKjS1_S1_EJS1_S1_S1_EEbRKSt5tupleIJDpT_EERKS2_IJDpT0_EE.exit, label %12

12:                                               ; preds = %10
  %13 = load i32, ptr %3, align 4
  %14 = load i32, ptr %5, align 4
  %15 = icmp ult i32 %13, %14
  br i1 %15, label %_ZStltIJRKjS1_S1_EJS1_S1_S1_EEbRKSt5tupleIJDpT_EERKS2_IJDpT0_EE.exit, label %16

16:                                               ; preds = %12
  %17 = icmp ult i32 %14, %13
  br i1 %17, label %_ZStltIJRKjS1_S1_EJS1_S1_S1_EEbRKSt5tupleIJDpT_EERKS2_IJDpT0_EE.exit, label %18

18:                                               ; preds = %16
  %19 = load i32, ptr %4, align 4
  %20 = load i32, ptr %6, align 4
  %21 = icmp ult i32 %19, %20
  br label %_ZStltIJRKjS1_S1_EJS1_S1_S1_EEbRKSt5tupleIJDpT_EERKS2_IJDpT0_EE.exit

_ZStltIJRKjS1_S1_EJS1_S1_S1_EEbRKSt5tupleIJDpT_EERKS2_IJDpT0_EE.exit: ; preds = %2, %10, %12, %16, %18
  %22 = phi i1 [ true, %2 ], [ false, %10 ], [ true, %12 ], [ false, %16 ], [ %21, %18 ]
  ret i1 %22
}